target datalayout = "e-m:e-p270:32:32-p271:32:32-p272:64:64-i64:64-i128:128-f80:128-n8:16:32:64-S128"
target triple = "x86_64-pc-linux-gnu"

%"class.std::__1::strong_ordering" = type { i8 }
%"class.std::__1::chrono::duration" = type { i64 }
%"struct.std::__1::_CmpUnspecifiedParam" = type { i8 }
%struct.timespec = type { i64, i64 }
%"class.std::__1::chrono::duration.2" = type { i64 }
%"struct.std::__1::chrono::__duration_cast" = type { i8 }
%"struct.std::__1::chrono::__duration_cast.3" = type { i8 }

; Function Attrs: mustprogress uwtable
define linkonce_odr hidden i64 @_ZNKSt3__16chrono15__duration_castINS0_8durationIxNS_5ratioILl1ELl1EEEEENS2_IxNS3_ILl1ELl1000000000EEEEENS3_ILl1000000000ELl1EEELb0ELb1EEclB8ne210000ERKS5_(ptr noundef nonnull align 1 dereferenceable(1) %0, ptr noundef nonnull align 8 dereferenceable(8) %1) #3 comdat align 2 {
  %3 = alloca %"class.std::__1::chrono::duration", align 8
  %4 = alloca ptr, align 8
  %5 = alloca ptr, align 8
  %6 = alloca i64, align 8
  store ptr %0, ptr %4, align 8, !tbaa !91
  store ptr %1, ptr %5, align 8, !tbaa !85
  call void @llvm.lifetime.start.p0(i64 8, ptr %6) #8
  %7 = load ptr, ptr %5, align 8, !tbaa !85
  %8 = call noundef i64 @_ZNKSt3__16chrono8durationIxNS_5ratioILl1ELl1EEEE5countB8ne210000Ev(ptr noundef nonnull align 8 dereferenceable(8) %7)
  %9 = mul nsw i64 %8, 1000000000
  store i64 %9, ptr %6, align 8, !tbaa !23
  call void @_ZNSt3__16chrono8durationIxNS_5ratioILl1ELl1000000000EEEEC2B8ne210000IxTnNS_9enable_ifIXaasr14is_convertibleIRKT_xEE5valueooL_ZNS_17integral_constantIbLb0EE5valueEEntsr23treat_as_floating_pointIS7_EE5valueEiE4typeELi0EEES9_(ptr noundef nonnull align 8 dereferenceable(8) %3, ptr noundef nonnull align 8 dereferenceable(8) %6)
  call void @llvm.lifetime.end.p0(i64 8, ptr %6) #8
  %10 = getelementptr inbounds nuw %"class.std::__1::chrono::duration", ptr %3, i32 0, i32 0
  %11 = load i64, ptr %10, align 8
  ret i64 %11
}

; Function Attrs: inlinehint mustprogress uwtable
define linkonce_odr hidden i64 @_ZNSt3__16chrono13duration_castB8ne210000INS0_8durationIxNS_5ratioILl1ELl1000000000EEEEExNS3_ILl1ELl1EEETnNS_9enable_ifIX15__is_duration_vIT_EEiE4typeELi0EEES8_RKNS2_IT0_T1_EE(ptr noundef nonnull align 8 dereferenceable(8) %0) #1 comdat {
  %2 = alloca %"class.std::__1::chrono::duration", align 8
  %3 = alloca ptr, align 8
  %4 = alloca %"struct.std::__1::chrono::__duration_cast.3", align 1
  store ptr %0, ptr %3, align 8, !tbaa !85
  call void @llvm.lifetime.start.p0(i64 1, ptr %4) #8
  %5 = load ptr, ptr %3, align 8, !tbaa !85
  %6 = call i64 @_ZNKSt3__16chrono15__duration_castINS0_8durationIxNS_5ratioILl1ELl1EEEEENS2_IxNS3_ILl1ELl1000000000EEEEENS3_ILl1000000000ELl1EEELb0ELb1EEclB8ne210000ERKS5_(ptr noundef nonnull align 1 dereferenceable(1) %4, ptr noundef nonnull align 8 dereferenceable(8) %5)
  %7 = getelementptr inbounds nuw %"class.std::__1::chrono::duration", ptr %2, i32 0, i32 0
  store i64 %6, ptr %7, align 8
  call void @llvm.lifetime.end.p0(i64 1, ptr %4) #8
  %8 = getelementptr inbounds nuw %"class.std::__1::chrono::duration", ptr %2, i32 0, i32 0
  %9 = load i64, ptr %8, align 8
  ret i64 %9
}

; Function Attrs: mustprogress nounwind uwtable
define linkonce_odr hidden void @_ZNSt3__16chrono8durationIxNS_5ratioILl1ELl1EEEEC2B8ne210000IxTnNS_9enable_ifIXaasr14is_convertibleIRKT_xEE5valueooL_ZNS_17integral_constantIbLb0EE5valueEEntsr23treat_as_floating_pointIS7_EE5valueEiE4typeELi0EEES9_(ptr noundef nonnull align 8 dereferenceable(8) %0, ptr noundef nonnull align 8 dereferenceable(8) %1) unnamed_addr #0 comdat align 2 {
  %3 = alloca ptr, align 8
  %4 = alloca ptr, align 8
  store ptr %0, ptr %3, align 8, !tbaa !85
  store ptr %1, ptr %4, align 8, !tbaa !80
  %5 = load ptr, ptr %3, align 8
  %6 = getelementptr inbounds nuw %"class.std::__1::chrono::duration.2", ptr %5, i32 0, i32 0
  %7 = load ptr, ptr %4, align 8, !tbaa !80
  %8 = load i64, ptr %7, align 8, !tbaa !23
  store i64 %8, ptr %6, align 8, !tbaa !87
  ret void
}

; Function Attrs: mustprogress uwtable
define linkonce_odr hidden void @_ZNSt3__16chrono8durationIxNS_5ratioILl1ELl1000000000EEEEC2B8ne210000IxNS2_ILl1ELl1EEETnNS_9enable_ifIXaasr13__no_overflowIT0_S3_EE5valueooL_ZNS_17integral_constantIbLb0EE5valueEEaaeqsr13__no_overflowIS8_S3_E4typeE3denLi1Entsr23treat_as_floating_pointIT_EE5valueEiE4typeELi0EEERKNS1_ISB_S8_EE(ptr noundef nonnull align 8 dereferenceable(8) %0, ptr noundef nonnull align 8 dereferenceable(8) %1) unnamed_addr #3 comdat align 2 {
  %3 = alloca ptr, align 8
  %4 = alloca ptr, align 8
  %5 = alloca %"class.std::__1::chrono::duration", align 8
  store ptr %0, ptr %3, align 8, !tbaa !18
  store ptr %1, ptr %4, align 8, !tbaa !85
  %6 = load ptr, ptr %3, align 8
  %7 = getelementptr inbounds nuw %"class.std::__1::chrono::duration", ptr %6, i32 0, i32 0
  call void @llvm.lifetime.start.p0(i64 8, ptr %5) #8
  %8 = load ptr, ptr %4, align 8, !tbaa !85
  %9 = call i64 @_ZNSt3__16chrono13duration_castB8ne210000INS0_8durationIxNS_5ratioILl1ELl1000000000EEEEExNS3_ILl1ELl1EEETnNS_9enable_ifIX15__is_duration_vIT_EEiE4typeELi0EEES8_RKNS2_IT0_T1_EE(ptr noundef nonnull align 8 dereferenceable(8) %8)
  %10 = getelementptr inbounds nuw %"class.std::__1::chrono::duration", ptr %5, i32 0, i32 0
  store i64 %9, ptr %10, align 8
  %11 = call noundef i64 @_ZNKSt3__16chrono8durationIxNS_5ratioILl1ELl1000000000EEEE5countB8ne210000Ev(ptr noundef nonnull align 8 dereferenceable(8) %5)
  call void @llvm.lifetime.end.p0(i64 8, ptr %5) #8
  store i64 %11, ptr %7, align 8, !tbaa !78
  ret void
}

; Function Attrs: mustprogress uwtable
define linkonce_odr hidden i64 @_ZNKSt3__16chrono15__duration_castINS0_8durationIxNS_5ratioILl1ELl1000000000EEEEENS2_IxNS3_ILl1ELl1EEEEES4_Lb1ELb0EEclB8ne210000ERKS5_(ptr noundef nonnull align 1 dereferenceable(1) %0, ptr noundef nonnull align 8 dereferenceable(8) %1) #3 comdat align 2 {
  %3 = alloca %"class.std::__1::chrono::duration.2", align 8
  %4 = alloca ptr, align 8
  %5 = alloca ptr, align 8
  %6 = alloca i64, align 8
  store ptr %0, ptr %4, align 8, !tbaa !89
  store ptr %1, ptr %5, align 8, !tbaa !18
  call void @llvm.lifetime.start.p0(i64 8, ptr %6) #8
  %7 = load ptr, ptr %5, align 8, !tbaa !18
  %8 = call noundef i64 @_ZNKSt3__16chrono8durationIxNS_5ratioILl1ELl1000000000EEEE5countB8ne210000Ev(ptr noundef nonnull align 8 dereferenceable(8) %7)
  %9 = sdiv i64 %8, 1000000000
  store i64 %9, ptr %6, align 8, !tbaa !23
  call void @_ZNSt3__16chrono8durationIxNS_5ratioILl1ELl1EEEEC2B8ne210000IxTnNS_9enable_ifIXaasr14is_convertibleIRKT_xEE5valueooL_ZNS_17integral_constantIbLb0EE5valueEEntsr23treat_as_floating_pointIS7_EE5valueEiE4typeELi0EEES9_(ptr noundef nonnull align 8 dereferenceable(8) %3, ptr noundef nonnull align 8 dereferenceable(8) %6)
  call void @llvm.lifetime.end.p0(i64 8, ptr %6) #8
  %10 = getelementptr inbounds nuw %"class.std::__1::chrono::duration.2", ptr %3, i32 0, i32 0
  %11 = load i64, ptr %10, align 8
  ret i64 %11
}

; Function Attrs: inlinehint mustprogress uwtable
define linkonce_odr hidden i64 @_ZNSt3__16chronomiB8ne210000IxNS_5ratioILl1ELl1000000000EEExNS2_ILl1ELl1EEEEENS_11common_typeIJNS0_8durationIT_T0_EENS6_IT1_T2_EEEE4typeERKS9_RKSC_(ptr noundef nonnull align 8 dereferenceable(8) %0, ptr noundef nonnull align 8 dereferenceable(8) %1) #1 comdat {
  %3 = alloca %"class.std::__1::chrono::duration", align 8
  %4 = alloca ptr, align 8
  %5 = alloca ptr, align 8
  %6 = alloca i64, align 8
  %7 = alloca %"class.std::__1::chrono::duration", align 8
  %8 = alloca %"class.std::__1::chrono::duration", align 8
  store ptr %0, ptr %4, align 8, !tbaa !18
  store ptr %1, ptr %5, align 8, !tbaa !85
  call void @llvm.lifetime.start.p0(i64 8, ptr %6) #8
  call void @llvm.lifetime.start.p0(i64 8, ptr %7) #8
  %9 = load ptr, ptr %4, align 8, !tbaa !18
  call void @llvm.memcpy.p0.p0.i64(ptr align 8 %7, ptr align 8 %9, i64 8, i1 false), !tbaa.struct !22
  %10 = call noundef i64 @_ZNKSt3__16chrono8durationIxNS_5ratioILl1ELl1000000000EEEE5countB8ne210000Ev(ptr noundef nonnull align 8 dereferenceable(8) %7)
  call void @llvm.lifetime.start.p0(i64 8, ptr %8) #8
  %11 = load ptr, ptr %5, align 8, !tbaa !85
  call void @_ZNSt3__16chrono8durationIxNS_5ratioILl1ELl1000000000EEEEC2B8ne210000IxNS2_ILl1ELl1EEETnNS_9enable_ifIXaasr13__no_overflowIT0_S3_EE5valueooL_ZNS_17integral_constantIbLb0EE5valueEEaaeqsr13__no_overflowIS8_S3_E4typeE3denLi1Entsr23treat_as_floating_pointIT_EE5valueEiE4typeELi0EEERKNS1_ISB_S8_EE(ptr noundef nonnull align 8 dereferenceable(8) %8, ptr noundef nonnull align 8 dereferenceable(8) %11)
  %12 = call noundef i64 @_ZNKSt3__16chrono8durationIxNS_5ratioILl1ELl1000000000EEEE5countB8ne210000Ev(ptr noundef nonnull align 8 dereferenceable(8) %8)
  %13 = sub nsw i64 %10, %12
  store i64 %13, ptr %6, align 8, !tbaa !23
  call void @_ZNSt3__16chrono8durationIxNS_5ratioILl1ELl1000000000EEEEC2B8ne210000IxTnNS_9enable_ifIXaasr14is_convertibleIRKT_xEE5valueooL_ZNS_17integral_constantIbLb0EE5valueEEntsr23treat_as_floating_pointIS7_EE5valueEiE4typeELi0EEES9_(ptr noundef nonnull align 8 dereferenceable(8) %3, ptr noundef nonnull align 8 dereferenceable(8) %6)
  call void @llvm.lifetime.end.p0(i64 8, ptr %8) #8
  call void @llvm.lifetime.end.p0(i64 8, ptr %7) #8
  call void @llvm.lifetime.end.p0(i64 8, ptr %6) #8
  %14 = getelementptr inbounds nuw %"class.std::__1::chrono::duration", ptr %3, i32 0, i32 0
  %15 = load i64, ptr %14, align 8
  ret i64 %15
}

; Function Attrs: mustprogress nounwind uwtable
define linkonce_odr hidden noundef i64 @_ZNKSt3__16chrono8durationIxNS_5ratioILl1ELl1EEEE5countB8ne210000Ev(ptr noundef nonnull align 8 dereferenceable(8) %0) #0 comdat align 2 {
  %2 = alloca ptr, align 8
  store ptr %0, ptr %2, align 8, !tbaa !85
  %3 = load ptr, ptr %2, align 8
  %4 = getelementptr inbounds nuw %"class.std::__1::chrono::duration.2", ptr %3, i32 0, i32 0
  %5 = load i64, ptr %4, align 8, !tbaa !87
  ret i64 %5
}

; Function Attrs: inlinehint mustprogress uwtable
define linkonce_odr hidden i64 @_ZNSt3__16chrono13duration_castB8ne210000INS0_8durationIxNS_5ratioILl1ELl1EEEEExNS3_ILl1ELl1000000000EEETnNS_9enable_ifIX15__is_duration_vIT_EEiE4typeELi0EEES8_RKNS2_IT0_T1_EE(ptr noundef nonnull align 8 dereferenceable(8) %0) #1 comdat {
  %2 = alloca %"class.std::__1::chrono::duration.2", align 8
  %3 = alloca ptr, align 8
  %4 = alloca %"struct.std::__1::chrono::__duration_cast", align 1
  store ptr %0, ptr %3, align 8, !tbaa !18
  call void @llvm.lifetime.start.p0(i64 1, ptr %4) #8
  %5 = load ptr, ptr %3, align 8, !tbaa !18
  %6 = call i64 @_ZNKSt3__16chrono15__duration_castINS0_8durationIxNS_5ratioILl1ELl1000000000EEEEENS2_IxNS3_ILl1ELl1EEEEES4_Lb1ELb0EEclB8ne210000ERKS5_(ptr noundef nonnull align 1 dereferenceable(1) %4, ptr noundef nonnull align 8 dereferenceable(8) %5)
  %7 = getelementptr inbounds nuw %"class.std::__1::chrono::duration.2", ptr %2, i32 0, i32 0
  store i64 %6, ptr %7, align 8
  call void @llvm.lifetime.end.p0(i64 1, ptr %4) #8
  %8 = getelementptr inbounds nuw %"class.std::__1::chrono::duration.2", ptr %2, i32 0, i32 0
  %9 = load i64, ptr %8, align 8
  ret i64 %9
}

; Function Attrs: inlinehint mustprogress uwtable
define linkonce_odr hidden { i64, i64 } @_ZNSt3__121__convert_to_timespecB8ne210000I8timespecEET_RKNS_6chrono8durationIxNS_5ratioILl1ELl1000000000EEEEE(ptr noundef nonnull align 8 dereferenceable(8) %0) #1 comdat {
  %2 = alloca %struct.timespec, align 8
  %3 = alloca ptr, align 8
  %4 = alloca %"class.std::__1::chrono::duration.2", align 8
  %5 = alloca i64, align 8
  %6 = alloca %"class.std::__1::chrono::duration", align 8
  store ptr %0, ptr %3, align 8, !tbaa !18
  call void @llvm.lifetime.start.p0(i64 8, ptr %4) #8
  %7 = load ptr, ptr %3, align 8, !tbaa !18
  %8 = call i64 @_ZNSt3__16chrono13duration_castB8ne210000INS0_8durationIxNS_5ratioILl1ELl1EEEEExNS3_ILl1ELl1000000000EEETnNS_9enable_ifIX15__is_duration_vIT_EEiE4typeELi0EEES8_RKNS2_IT0_T1_EE(ptr noundef nonnull align 8 dereferenceable(8) %7)
  %9 = getelementptr inbounds nuw %"class.std::__1::chrono::duration.2", ptr %4, i32 0, i32 0
  store i64 %8, ptr %9, align 8
  call void @llvm.lifetime.start.p0(i64 8, ptr %5) #8
  store i64 9223372036854775807, ptr %5, align 8, !tbaa !17
  %10 = call noundef i64 @_ZNKSt3__16chrono8durationIxNS_5ratioILl1ELl1EEEE5countB8ne210000Ev(ptr noundef nonnull align 8 dereferenceable(8) %4)
  %11 = icmp slt i64 %10, 9223372036854775807
  br i1 %11, label %12, label %20

12:                                               ; preds = %1
  %13 = call noundef i64 @_ZNKSt3__16chrono8durationIxNS_5ratioILl1ELl1EEEE5countB8ne210000Ev(ptr noundef nonnull align 8 dereferenceable(8) %4)
  %14 = getelementptr inbounds nuw %struct.timespec, ptr %2, i32 0, i32 0
  store i64 %13, ptr %14, align 8, !tbaa !82
  call void @llvm.lifetime.start.p0(i64 8, ptr %6) #8
  %15 = load ptr, ptr %3, align 8, !tbaa !18
  %16 = call i64 @_ZNSt3__16chronomiB8ne210000IxNS_5ratioILl1ELl1000000000EEExNS2_ILl1ELl1EEEEENS_11common_typeIJNS0_8durationIT_T0_EENS6_IT1_T2_EEEE4typeERKS9_RKSC_(ptr noundef nonnull align 8 dereferenceable(8) %15, ptr noundef nonnull align 8 dereferenceable(8) %4)
  %17 = getelementptr inbounds nuw %"class.std::__1::chrono::duration", ptr %6, i32 0, i32 0
  store i64 %16, ptr %17, align 8
  %18 = call noundef i64 @_ZNKSt3__16chrono8durationIxNS_5ratioILl1ELl1000000000EEEE5countB8ne210000Ev(ptr noundef nonnull align 8 dereferenceable(8) %6)
  %19 = getelementptr inbounds nuw %struct.timespec, ptr %2, i32 0, i32 1
  store i64 %18, ptr %19, align 8, !tbaa !84
  call void @llvm.lifetime.end.p0(i64 8, ptr %6) #8
  br label %23

20:                                               ; preds = %1
  %21 = getelementptr inbounds nuw %struct.timespec, ptr %2, i32 0, i32 0
  store i64 9223372036854775807, ptr %21, align 8, !tbaa !82
  %22 = getelementptr inbounds nuw %struct.timespec, ptr %2, i32 0, i32 1
  store i64 999999999, ptr %22, align 8, !tbaa !84
  br label %23

23:                                               ; preds = %20, %12
  call void @llvm.lifetime.end.p0(i64 8, ptr %5) #8
  call void @llvm.lifetime.end.p0(i64 8, ptr %4) #8
  %24 = load { i64, i64 }, ptr %2, align 8
  ret { i64, i64 } %24
}

; Function Attrs: mustprogress nounwind uwtable
define linkonce_odr hidden noundef i64 @_ZNKSt3__16chrono8durationIxNS_5ratioILl1ELl1000000000EEEE5countB8ne210000Ev(ptr noundef nonnull align 8 dereferenceable(8) %0) #0 comdat align 2 {
  %2 = alloca ptr, align 8
  store ptr %0, ptr %2, align 8, !tbaa !18
  %3 = load ptr, ptr %2, align 8
  %4 = getelementptr inbounds nuw %"class.std::__1::chrono::duration", ptr %3, i32 0, i32 0
  %5 = load i64, ptr %4, align 8, !tbaa !78
  ret i64 %5
}

; Function Attrs: noinline noreturn nounwind uwtable
define linkonce_odr hidden void @__clang_call_terminate(ptr noundef %0) #2 comdat {
  %2 = call ptr @__cxa_begin_catch(ptr %0) #8
  call void @_ZSt9terminatev() #17
  unreachable
}

; Function Attrs: mustprogress nounwind uwtable
define linkonce_odr hidden void @_ZNSt3__16chrono8durationIxNS_5ratioILl1ELl1000000000EEEEC2B8ne210000IxTnNS_9enable_ifIXaasr14is_convertibleIRKT_xEE5valueooL_ZNS_17integral_constantIbLb0EE5valueEEntsr23treat_as_floating_pointIS7_EE5valueEiE4typeELi0EEES9_(ptr noundef nonnull align 8 dereferenceable(8) %0, ptr noundef nonnull align 8 dereferenceable(8) %1) unnamed_addr #0 comdat align 2 {
  %3 = alloca ptr, align 8
  %4 = alloca ptr, align 8
  store ptr %0, ptr %3, align 8, !tbaa !18
  store ptr %1, ptr %4, align 8, !tbaa !80
  %5 = load ptr, ptr %3, align 8
  %6 = getelementptr inbounds nuw %"class.std::__1::chrono::duration", ptr %5, i32 0, i32 0
  %7 = load ptr, ptr %4, align 8, !tbaa !80
  %8 = load i64, ptr %7, align 8, !tbaa !23
  store i64 %8, ptr %6, align 8, !tbaa !78
  ret void
}

; Function Attrs: mustprogress nounwind uwtable
define linkonce_odr hidden noundef i64 @_ZNSt3__16chrono15duration_valuesIxE4zeroB8ne210000Ev() #0 comdat align 2 {
  ret i64 0
}

; Function Attrs: inlinehint mustprogress uwtable
define linkonce_odr hidden void @_ZNSt3__125__libcpp_thread_sleep_forB8ne210000ERKNS_6chrono8durationIxNS_5ratioILl1ELl1000000000EEEEE(ptr noundef nonnull align 8 dereferenceable(8) %0) #1 comdat {
  %2 = alloca ptr, align 8
  %3 = alloca %struct.timespec, align 8
  store ptr %0, ptr %2, align 8, !tbaa !18
  call void @llvm.lifetime.start.p0(i64 16, ptr %3) #8
  %4 = load ptr, ptr %2, align 8, !tbaa !18
  %5 = call { i64, i64 } @_ZNSt3__121__convert_to_timespecB8ne210000I8timespecEET_RKNS_6chrono8durationIxNS_5ratioILl1ELl1000000000EEEEE(ptr noundef nonnull align 8 dereferenceable(8) %4)
  %6 = getelementptr inbounds nuw { i64, i64 }, ptr %3, i32 0, i32 0
  %7 = extractvalue { i64, i64 } %5, 0
  store i64 %7, ptr %6, align 8
  %8 = getelementptr inbounds nuw { i64, i64 }, ptr %3, i32 0, i32 1
  %9 = extractvalue { i64, i64 } %5, 1
  store i64 %9, ptr %8, align 8
  br label %10

10:                                               ; preds = %19, %1
  %11 = call i32 @nanosleep(ptr noundef %3, ptr noundef %3)
  %12 = icmp eq i32 %11, -1
  br i1 %12, label %13, label %17

13:                                               ; preds = %10
  %14 = call ptr @__errno_location() #19
  %15 = load i32, ptr %14, align 4, !tbaa !12
  %16 = icmp eq i32 %15, 4
  br label %17

17:                                               ; preds = %13, %10
  %18 = phi i1 [ false, %10 ], [ %16, %13 ]
  br i1 %18, label %19, label %20

19:                                               ; preds = %17
  br label %10, !llvm.loop !25

20:                                               ; preds = %17
  call void @llvm.lifetime.end.p0(i64 16, ptr %3) #8
  ret void
}

; Function Attrs: mustprogress nounwind uwtable
define linkonce_odr hidden noundef zeroext i1 @_ZNSt3__1gtB8ne210000ENS_15strong_orderingENS_20_CmpUnspecifiedParamE(i8 %0) #0 comdat {
  %2 = alloca %"class.std::__1::strong_ordering", align 1
  %3 = getelementptr inbounds nuw %"class.std::__1::strong_ordering", ptr %2, i32 0, i32 0
  store i8 %0, ptr %3, align 1
  %4 = getelementptr inbounds nuw %"class.std::__1::strong_ordering", ptr %2, i32 0, i32 0
  %5 = load i8, ptr %4, align 1, !tbaa !20
  %6 = sext i8 %5 to i32
  %7 = icmp sgt i32 %6, 0
  ret i1 %7
}

; Function Attrs: mustprogress uwtable
define linkonce_odr hidden i8 @_ZNSt3__16chronossB8ne210000IxNS_5ratioILl1ELl1000000000EEExS3_Q20three_way_comparableINS_11common_typeIJT_T1_EE4typeEEEEDaRKNS0_8durationIS5_T0_EERKNS9_IS6_T2_EE(ptr noundef nonnull align 8 dereferenceable(8) %0, ptr noundef nonnull align 8 dereferenceable(8) %1) #3 comdat {
  %3 = alloca %"class.std::__1::strong_ordering", align 1
  %4 = alloca ptr, align 8
  %5 = alloca ptr, align 8
  %6 = alloca %"class.std::__1::chrono::duration", align 8
  %7 = alloca %"class.std::__1::chrono::duration", align 8
  store ptr %0, ptr %4, align 8, !tbaa !18
  store ptr %1, ptr %5, align 8, !tbaa !18
  call void @llvm.lifetime.start.p0(i64 8, ptr %6) #8
  %8 = load ptr, ptr %4, align 8, !tbaa !18
  call void @llvm.memcpy.p0.p0.i64(ptr align 8 %6, ptr align 8 %8, i64 8, i1 false), !tbaa.struct !22
  %9 = call noundef i64 @_ZNKSt3__16chrono8durationIxNS_5ratioILl1ELl1000000000EEEE5countB8ne210000Ev(ptr noundef nonnull align 8 dereferenceable(8) %6)
  call void @llvm.lifetime.start.p0(i64 8, ptr %7) #8
  %10 = load ptr, ptr %5, align 8, !tbaa !18
  call void @llvm.memcpy.p0.p0.i64(ptr align 8 %7, ptr align 8 %10, i64 8, i1 false), !tbaa.struct !22
  %11 = call noundef i64 @_ZNKSt3__16chrono8durationIxNS_5ratioILl1ELl1000000000EEEE5countB8ne210000Ev(ptr noundef nonnull align 8 dereferenceable(8) %7)
  %12 = icmp slt i64 %9, %11
  %13 = select i1 %12, i8 -1, i8 1
  %14 = icmp eq i64 %9, %11
  %15 = select i1 %14, i8 0, i8 %13
  %16 = getelementptr inbounds nuw %"class.std::__1::strong_ordering", ptr %3, i32 0, i32 0
  store i8 %15, ptr %16, align 1, !tbaa !20
  call void @llvm.lifetime.end.p0(i64 8, ptr %7) #8
  call void @llvm.lifetime.end.p0(i64 8, ptr %6) #8
  %17 = getelementptr inbounds nuw %"class.std::__1::strong_ordering", ptr %3, i32 0, i32 0
  %18 = load i8, ptr %17, align 1
  ret i8 %18
}

; Function Attrs: mustprogress nounwind uwtable
define linkonce_odr hidden i64 @_ZNSt3__16chrono8durationIxNS_5ratioILl1ELl1000000000EEEE4zeroB8ne210000Ev() #0 comdat align 2 personality ptr @__gxx_personality_v0 {
  %1 = alloca %"class.std::__1::chrono::duration", align 8
  %2 = alloca i64, align 8
  call void @llvm.lifetime.start.p0(i64 8, ptr %2) #8
  %3 = call noundef i64 @_ZNSt3__16chrono15duration_valuesIxE4zeroB8ne210000Ev() #8
  store i64 %3, ptr %2, align 8, !tbaa !23
  invoke void @_ZNSt3__16chrono8durationIxNS_5ratioILl1ELl1000000000EEEEC2B8ne210000IxTnNS_9enable_ifIXaasr14is_convertibleIRKT_xEE5valueooL_ZNS_17integral_constantIbLb0EE5valueEEntsr23treat_as_floating_pointIS7_EE5valueEiE4typeELi0EEES9_(ptr noundef nonnull align 8 dereferenceable(8) %1, ptr noundef nonnull align 8 dereferenceable(8) %2)
          to label %4 unwind label %7

4:                                                ; preds = %0
  call void @llvm.lifetime.end.p0(i64 8, ptr %2) #8
  %5 = getelementptr inbounds nuw %"class.std::__1::chrono::duration", ptr %1, i32 0, i32 0
  %6 = load i64, ptr %5, align 8
  ret i64 %6

7:                                                ; preds = %0
  %8 = landingpad { ptr, i32 }
          catch ptr null
  %9 = extractvalue { ptr, i32 } %8, 0
  call void @__clang_call_terminate(ptr %9) #17
  unreachable
}

; Function Attrs: mustprogress uwtable
define dso_local void @_ZNSt3__111this_thread9sleep_forERKNS_6chrono8durationIxNS_5ratioILl1ELl1000000000EEEEE(ptr noundef nonnull align 8 dereferenceable(8) %0) #3 {
  %2 = alloca ptr, align 8
  %3 = alloca %"class.std::__1::strong_ordering", align 1
  %4 = alloca %"class.std::__1::chrono::duration", align 8
  %5 = alloca %"struct.std::__1::_CmpUnspecifiedParam", align 1
  store ptr %0, ptr %2, align 8, !tbaa !18
  %6 = load ptr, ptr %2, align 8, !tbaa !18
  call void @llvm.lifetime.start.p0(i64 8, ptr %4) #8
  %7 = call i64 @_ZNSt3__16chrono8durationIxNS_5ratioILl1ELl1000000000EEEE4zeroB8ne210000Ev() #8
  %8 = getelementptr inbounds nuw %"class.std::__1::chrono::duration", ptr %4, i32 0, i32 0
  store i64 %7, ptr %8, align 8
  %9 = call i8 @_ZNSt3__16chronossB8ne210000IxNS_5ratioILl1ELl1000000000EEExS3_Q20three_way_comparableINS_11common_typeIJT_T1_EE4typeEEEEDaRKNS0_8durationIS5_T0_EERKNS9_IS6_T2_EE(ptr noundef nonnull align 8 dereferenceable(8) %6, ptr noundef nonnull align 8 dereferenceable(8) %4)
  %10 = getelementptr inbounds nuw %"class.std::__1::strong_ordering", ptr %3, i32 0, i32 0
  store i8 %9, ptr %10, align 1
  %11 = getelementptr inbounds nuw %"struct.std::__1::_CmpUnspecifiedParam", ptr %5, i32 0, i32 0
  store i8 undef, ptr %11, align 1
  %12 = getelementptr inbounds nuw %"class.std::__1::strong_ordering", ptr %3, i32 0, i32 0
  %13 = load i8, ptr %12, align 1
  %14 = call noundef zeroext i1 @_ZNSt3__1gtB8ne210000ENS_15strong_orderingENS_20_CmpUnspecifiedParamE(i8 %13) #8
  call void @llvm.lifetime.end.p0(i64 8, ptr %4) #8
  br i1 %14, label %15, label %17

15:                                               ; preds = %1
  %16 = load ptr, ptr %2, align 8, !tbaa !18
  call void @_ZNSt3__125__libcpp_thread_sleep_forB8ne210000ERKNS_6chrono8durationIxNS_5ratioILl1ELl1000000000EEEEE(ptr noundef nonnull align 8 dereferenceable(8) %16)
  br label %17

17:                                               ; preds = %15, %1
  ret void
}