; Function Attrs: mustprogress uwtable
define dso_local void @_ZNSt3__111this_thread9sleep_forERKNS_6chrono8durationIxNS_5ratioILl1ELl1000000000EEEEE(ptr noundef nonnull readonly align 8 captures(none) dereferenceable(8) %0) local_unnamed_addr #3 personality ptr @__gxx_personality_v0 {
  %2 = alloca %struct.timespec, align 8
  %3 = load i64, ptr %0, align 8, !tbaa !11
  %4 = icmp sgt i64 %3, 0
  br i1 %4, label %5, label %16

5:                                                ; preds = %1
  call void @llvm.lifetime.start.p0(i64 16, ptr nonnull %2) #21
  %6 = udiv i64 %3, 1000000000
  %.neg.i.i.i = mul nsw i64 %6, -1000000000
  %7 = add nsw i64 %.neg.i.i.i, %3
  store i64 %6, ptr %2, align 8
  %8 = getelementptr inbounds nuw i8, ptr %2, i64 8
  store i64 %7, ptr %8, align 8
  br label %9

9:                                                ; preds = %12, %5
  %10 = call i32 @nanosleep(ptr noundef nonnull %2, ptr noundef nonnull %2)
  %11 = icmp eq i32 %10, -1
  br i1 %11, label %12, label %_ZNSt3__125__libcpp_thread_sleep_forB8ne210000ERKNS_6chrono8durationIxNS_5ratioILl1ELl1000000000EEEEE.exit

12:                                               ; preds = %9
  %13 = tail call ptr @__errno_location() #23
  %14 = load i32, ptr %13, align 4, !tbaa !13
  %15 = icmp eq i32 %14, 4
  br i1 %15, label %9, label %_ZNSt3__125__libcpp_thread_sleep_forB8ne210000ERKNS_6chrono8durationIxNS_5ratioILl1ELl1000000000EEEEE.exit, !llvm.loop !15

_ZNSt3__125__libcpp_thread_sleep_forB8ne210000ERKNS_6chrono8durationIxNS_5ratioILl1ELl1000000000EEEEE.exit: ; preds = %9, %12
  call void @llvm.lifetime.end.p0(i64 16, ptr nonnull %2) #21
  br label %16

16:                                               ; preds = %_ZNSt3__125__libcpp_thread_sleep_forB8ne210000ERKNS_6chrono8durationIxNS_5ratioILl1ELl1000000000EEEEE.exit, %1
  ret void
}